; Function Attrs: nofree nounwind uwtable
define void @Abc_GraphPathPrint5(ptr noundef readonly captures(none) %0, ptr noundef readonly captures(none) %1) local_unnamed_addr #7 {
  %3 = alloca [17 x [17 x i8]], align 16
  call void @llvm.lifetime.start.p0(i64 289, ptr nonnull %3) #23
  %4 = getelementptr i8, ptr %1, i64 4
  %.val = load i32, ptr %4, align 4, !tbaa !34
  br label %.preheader57

.preheader57:                                     ; preds = %2, %12
  %indvars.iv69 = phi i64 [ 0, %2 ], [ %indvars.iv.next70, %12 ]
  br label %8

.preheader56:                                     ; preds = %12
  %5 = icmp sgt i32 %.val, 1
  br i1 %5, label %.lr.ph64, label %.preheader.preheader

.lr.ph64:                                         ; preds = %.preheader56
  %6 = lshr i32 %.val, 1
  %7 = getelementptr i8, ptr %1, i64 8
  %.val53 = load ptr, ptr %7, align 8, !tbaa !37
  %scevgep = getelementptr inbounds nuw i8, ptr %3, i64 1
  %wide.trip.count84 = zext nneg i32 %6 to i64
  br label %13

8:                                                ; preds = %.preheader57, %8
  %indvars.iv = phi i64 [ 0, %.preheader57 ], [ %indvars.iv.next, %8 ]
  %9 = or i64 %indvars.iv, %indvars.iv69
  %10 = and i64 %9, 3
  %or.cond = icmp eq i64 %10, 0
  %spec.select = select i1 %or.cond, i8 42, i8 32
  %11 = getelementptr inbounds nuw [17 x [17 x i8]], ptr %3, i64 0, i64 %indvars.iv69, i64 %indvars.iv
  store i8 %spec.select, ptr %11, align 1, !tbaa !52
  %indvars.iv.next = add nuw nsw i64 %indvars.iv, 1
  %exitcond.not = icmp eq i64 %indvars.iv.next, 17
  br i1 %exitcond.not, label %12, label %8, !llvm.loop !59

12:                                               ; preds = %8
  %indvars.iv.next70 = add nuw nsw i64 %indvars.iv69, 1
  %exitcond72.not = icmp eq i64 %indvars.iv.next70, 17
  br i1 %exitcond72.not, label %.preheader56, label %.preheader57, !llvm.loop !60

13:                                               ; preds = %.lr.ph64, %.loopexit
  %indvars.iv81 = phi i64 [ 0, %.lr.ph64 ], [ %indvars.iv.next82, %.loopexit ]
  %.idx = shl nuw nsw i64 %indvars.iv81, 3
  %14 = getelementptr inbounds nuw i8, ptr %.val53, i64 %.idx
  %15 = load i32, ptr %14, align 4, !tbaa !5
  %16 = sdiv i32 %15, 5
  %17 = shl nsw i32 %16, 2
  %18 = srem i32 %15, 5
  %19 = shl nsw i32 %18, 2
  %20 = getelementptr inbounds nuw i8, ptr %14, i64 4
  %21 = load i32, ptr %20, align 4, !tbaa !5
  %22 = sdiv i32 %21, 5
  %23 = shl nsw i32 %22, 2
  %24 = srem i32 %21, 5
  %25 = shl nsw i32 %24, 2
  %26 = getelementptr inbounds nuw i32, ptr %0, i64 %indvars.iv81
  %27 = load i32, ptr %26, align 4, !tbaa !5
  %.not = icmp eq i32 %27, 0
  br i1 %.not, label %.loopexit, label %28

28:                                               ; preds = %13
  %29 = icmp eq i32 %17, %23
  br i1 %29, label %30, label %41

30:                                               ; preds = %28
  %31 = or disjoint i32 %19, 1
  %32 = icmp slt i32 %31, %25
  br i1 %32, label %.lr.ph62, label %.loopexit

.lr.ph62:                                         ; preds = %30
  %33 = sext i32 %17 to i64
  %34 = mul nsw i64 %33, 17
  %35 = sext i32 %19 to i64
  %36 = getelementptr i8, ptr %scevgep, i64 %34
  %scevgep77 = getelementptr i8, ptr %36, i64 %35
  %37 = add nsw i32 %25, -4
  %38 = sub nsw i32 %37, %19
  %39 = or disjoint i32 %38, 3
  %40 = zext i32 %39 to i64
  call void @llvm.memset.p0.i64(ptr noundef nonnull align 1 dereferenceable(1) %scevgep77, i8 45, i64 %40, i1 false), !tbaa !52
  br label %.loopexit

41:                                               ; preds = %28
  %42 = icmp eq i32 %19, %25
  %43 = or disjoint i32 %17, 1
  %44 = icmp slt i32 %43, %23
  %or.cond95 = select i1 %42, i1 %44, i1 false
  br i1 %or.cond95, label %.lr.ph, label %.loopexit

.lr.ph:                                           ; preds = %41
  %45 = sext i32 %19 to i64
  %46 = or disjoint i32 %17, 1
  %47 = sext i32 %46 to i64
  %wide.trip.count = sext i32 %23 to i64
  br label %48

48:                                               ; preds = %.lr.ph, %48
  %indvars.iv73 = phi i64 [ %47, %.lr.ph ], [ %indvars.iv.next74, %48 ]
  %49 = getelementptr inbounds [17 x [17 x i8]], ptr %3, i64 0, i64 %indvars.iv73, i64 %45
  store i8 124, ptr %49, align 1, !tbaa !52
  %indvars.iv.next74 = add nsw i64 %indvars.iv73, 1
  %exitcond76.not = icmp eq i64 %indvars.iv.next74, %wide.trip.count
  br i1 %exitcond76.not, label %.loopexit, label %48, !llvm.loop !61

.loopexit:                                        ; preds = %48, %.lr.ph62, %30, %41, %13
  %indvars.iv.next82 = add nuw nsw i64 %indvars.iv81, 1
  %exitcond85.not = icmp eq i64 %indvars.iv.next82, %wide.trip.count84
  br i1 %exitcond85.not, label %.preheader.preheader, label %13, !llvm.loop !62

.preheader.preheader:                             ; preds = %.loopexit, %.preheader56
  br label %.preheader

.preheader:                                       ; preds = %.preheader.preheader, %54
  %indvars.iv90 = phi i64 [ %indvars.iv.next91, %54 ], [ 0, %.preheader.preheader ]
  br label %50

50:                                               ; preds = %.preheader, %50
  %indvars.iv86 = phi i64 [ 0, %.preheader ], [ %indvars.iv.next87, %50 ]
  %51 = getelementptr inbounds nuw [17 x [17 x i8]], ptr %3, i64 0, i64 %indvars.iv90, i64 %indvars.iv86
  %52 = load i8, ptr %51, align 1, !tbaa !52
  %53 = sext i8 %52 to i32
  %putchar51 = tail call i32 @putchar(i32 %53)
  %indvars.iv.next87 = add nuw nsw i64 %indvars.iv86, 1
  %exitcond89.not = icmp eq i64 %indvars.iv.next87, 17
  br i1 %exitcond89.not, label %54, label %50, !llvm.loop !63

54:                                               ; preds = %50
  %indvars.iv.next91 = add nuw nsw i64 %indvars.iv90, 1
  %putchar = tail call i32 @putchar(i32 10)
  %exitcond93.not = icmp eq i64 %indvars.iv.next91, 17
  br i1 %exitcond93.not, label %55, label %.preheader, !llvm.loop !64

55:                                               ; preds = %54
  %puts = tail call i32 @puts(ptr nonnull dereferenceable(1) @str.1)
  call void @llvm.lifetime.end.p0(i64 289, ptr nonnull %3) #23
  ret void
}